target datalayout = "e-m:e-p270:32:32-p271:32:32-p272:64:64-i64:64-i128:128-f80:128-n8:16:32:64-S128"
target triple = "x86_64-pc-linux-gnu"

%struct.wl_data_device_listener = type { ptr, ptr, ptr, ptr, ptr, ptr }
%struct.SDL_WaylandSeat = type { ptr, ptr, ptr, ptr, ptr, %struct.wl_list, i32, i32, %struct.anon, %struct.anon.1, %struct.anon.4, %struct.anon.5, %struct.anon.6 }
%struct.wl_list = type { ptr, ptr }
%struct.anon = type { ptr, ptr, ptr, ptr, ptr, %struct.SDL_WaylandKeyboardRepeat, i64, i16, i16, i32, i8, %struct.anon.0 }
%struct.SDL_WaylandKeyboardRepeat = type { i32, i32, i32, i8, i8, i32, i64, i64, i64, i32, [8 x i8] }
%struct.anon.0 = type { ptr, ptr, ptr, ptr, i32, i32, i32, i32, i32, i32, i32, i32, i32, i32, i32 }
%struct.anon.1 = type { ptr, ptr, ptr, ptr, ptr, ptr, ptr, ptr, i64, i32, i32, %struct.SDL_Point, i32, %struct.anon.2, %struct.anon.3 }
%struct.SDL_Point = type { i32, i32 }
%struct.anon.2 = type { i32, float, i32, float, i64, i32 }
%struct.anon.3 = type { ptr, ptr, ptr, i64, i64, i32 }
%struct.anon.4 = type { ptr, ptr, i64, %struct.wl_list }
%struct.anon.5 = type { ptr, %struct.SDL_Rect, i8, i8 }
%struct.SDL_Rect = type { i32, i32, i32, i32 }
%struct.anon.6 = type { ptr, %struct.wl_list }
%struct.SDL_VideoData = type { i8, ptr, i32, ptr, ptr, ptr, ptr, i32, %struct.anon.7, ptr, ptr, ptr, ptr, ptr, ptr, ptr, ptr, ptr, ptr, ptr, ptr, ptr, ptr, ptr, ptr, ptr, ptr, ptr, ptr, ptr, ptr, %struct.wl_list, ptr, ptr, ptr, ptr, i32, i32, i8, i8 }
%struct.anon.7 = type { ptr }
%struct.SDL_WaylandDataDevice = type { ptr, ptr, ptr, i32, ptr, ptr, ptr, i8, i8, ptr, i32, ptr }
%struct.SDL_DBusContext = type { ptr, ptr, ptr, ptr, ptr, ptr, ptr, ptr, ptr, ptr, ptr, ptr, ptr, ptr, ptr, ptr, ptr, ptr, ptr, ptr, ptr, ptr, ptr, ptr, ptr, ptr, ptr, ptr, ptr, ptr, ptr, ptr, ptr, ptr, ptr, ptr, ptr, ptr, ptr, ptr, ptr, ptr, ptr, ptr, ptr, ptr, ptr, ptr, ptr, ptr }

@WAYLAND_wl_proxy_marshal_flags = external global ptr, align 8
@WAYLAND_wl_proxy_get_version = external global ptr, align 8
@WAYLAND_wl_proxy_add_listener = external global ptr, align 8
@WAYLAND_wl_proxy_set_user_data = external global ptr, align 8
@data_device_listener = internal constant %struct.wl_data_device_listener { ptr @data_device_handle_data_offer, ptr @data_device_handle_enter, ptr @data_device_handle_leave, ptr @data_device_handle_motion, ptr @data_device_handle_drop, ptr @data_device_handle_selection }, align 8
@WAYLAND_wl_data_device_interface = external global ptr, align 8
@.str.6 = private unnamed_addr constant [4 x i8] c"%lu\00", align 1

; Function Attrs: inlinehint nounwind uwtable
define internal i32 @wl_data_device_add_listener(ptr noundef %0, ptr noundef %1, ptr noundef %2) #2 {
  %4 = alloca ptr, align 8
  %5 = alloca ptr, align 8
  %6 = alloca ptr, align 8
  store ptr %0, ptr %4, align 8
  store ptr %1, ptr %5, align 8
  store ptr %2, ptr %6, align 8
  %7 = load ptr, ptr @WAYLAND_wl_proxy_add_listener, align 8
  %8 = load ptr, ptr %4, align 8
  %9 = load ptr, ptr %5, align 8
  %10 = load ptr, ptr %6, align 8
  %11 = call i32 %7(ptr noundef %8, ptr noundef %9, ptr noundef %10)
  ret i32 %11
}

; Function Attrs: inlinehint nounwind uwtable
define internal void @wl_data_device_set_user_data(ptr noundef %0, ptr noundef %1) #2 {
  %3 = alloca ptr, align 8
  %4 = alloca ptr, align 8
  store ptr %0, ptr %3, align 8
  store ptr %1, ptr %4, align 8
  %5 = load ptr, ptr @WAYLAND_wl_proxy_set_user_data, align 8
  %6 = load ptr, ptr %3, align 8
  %7 = load ptr, ptr %4, align 8
  call void %5(ptr noundef %6, ptr noundef %7)
  ret void
}

; Function Attrs: nounwind uwtable
define internal void @Wayland_DataDeviceSetID(ptr noundef %0) #0 {
  %2 = alloca ptr, align 8
  %3 = alloca ptr, align 8
  %4 = alloca ptr, align 8
  %5 = alloca [24 x i8], align 16
  %6 = alloca i64, align 8
  store ptr %0, ptr %2, align 8
  %7 = load ptr, ptr %2, align 8
  %8 = getelementptr inbounds nuw %struct.SDL_WaylandDataDevice, ptr %7, i32 0, i32 2
  %9 = load ptr, ptr %8, align 8
  %10 = icmp ne ptr %9, null
  br i1 %10, label %32, label %11

11:                                               ; preds = %1
  call void @llvm.lifetime.start.p0(i64 8, ptr %3) #10
  %12 = call ptr @SDL_DBus_GetContext()
  store ptr %12, ptr %3, align 8
  %13 = load ptr, ptr %3, align 8
  %14 = icmp ne ptr %13, null
  br i1 %14, label %15, label %31

15:                                               ; preds = %11
  call void @llvm.lifetime.start.p0(i64 8, ptr %4) #10
  %16 = load ptr, ptr %3, align 8
  %17 = getelementptr inbounds nuw %struct.SDL_DBusContext, ptr %16, i32 0, i32 6
  %18 = load ptr, ptr %17, align 8
  %19 = load ptr, ptr %3, align 8
  %20 = getelementptr inbounds nuw %struct.SDL_DBusContext, ptr %19, i32 0, i32 0
  %21 = load ptr, ptr %20, align 8
  %22 = call ptr %18(ptr noundef %21)
  store ptr %22, ptr %4, align 8
  %23 = load ptr, ptr %4, align 8
  %24 = icmp ne ptr %23, null
  br i1 %24, label %25, label %30

25:                                               ; preds = %15
  %26 = load ptr, ptr %4, align 8
  %27 = call noalias ptr @SDL_strdup_REAL(ptr noundef %26)
  %28 = load ptr, ptr %2, align 8
  %29 = getelementptr inbounds nuw %struct.SDL_WaylandDataDevice, ptr %28, i32 0, i32 2
  store ptr %27, ptr %29, align 8
  br label %30

30:                                               ; preds = %25, %15
  call void @llvm.lifetime.end.p0(i64 8, ptr %4) #10
  br label %31

31:                                               ; preds = %30, %11
  call void @llvm.lifetime.end.p0(i64 8, ptr %3) #10
  br label %32

32:                                               ; preds = %31, %1
  %33 = load ptr, ptr %2, align 8
  %34 = getelementptr inbounds nuw %struct.SDL_WaylandDataDevice, ptr %33, i32 0, i32 2
  %35 = load ptr, ptr %34, align 8
  %36 = icmp ne ptr %35, null
  br i1 %36, label %47, label %37

37:                                               ; preds = %32
  call void @llvm.lifetime.start.p0(i64 24, ptr %5) #10
  call void @llvm.lifetime.start.p0(i64 8, ptr %6) #10
  %38 = call i32 @getpid() #10
  %39 = sext i32 %38 to i64
  store i64 %39, ptr %6, align 8
  %40 = getelementptr inbounds [24 x i8], ptr %5, i64 0, i64 0
  %41 = load i64, ptr %6, align 8
  %42 = call i32 (ptr, i64, ptr, ...) @SDL_snprintf_REAL(ptr noundef %40, i64 noundef 24, ptr noundef @.str.6, i64 noundef %41)
  %43 = getelementptr inbounds [24 x i8], ptr %5, i64 0, i64 0
  %44 = call noalias ptr @SDL_strdup_REAL(ptr noundef %43)
  %45 = load ptr, ptr %2, align 8
  %46 = getelementptr inbounds nuw %struct.SDL_WaylandDataDevice, ptr %45, i32 0, i32 2
  store ptr %44, ptr %46, align 8
  call void @llvm.lifetime.end.p0(i64 8, ptr %6) #10
  call void @llvm.lifetime.end.p0(i64 24, ptr %5) #10
  br label %47

47:                                               ; preds = %37, %32
  ret void
}

; Function Attrs: inlinehint nounwind uwtable
define internal ptr @wl_data_device_manager_get_data_device(ptr noundef %0, ptr noundef %1) #2 {
  %3 = alloca ptr, align 8
  %4 = alloca ptr, align 8
  %5 = alloca ptr, align 8
  store ptr %0, ptr %3, align 8
  store ptr %1, ptr %4, align 8
  call void @llvm.lifetime.start.p0(i64 8, ptr %5) #10
  %6 = load ptr, ptr @WAYLAND_wl_proxy_marshal_flags, align 8
  %7 = load ptr, ptr %3, align 8
  %8 = load ptr, ptr @WAYLAND_wl_data_device_interface, align 8
  %9 = load ptr, ptr @WAYLAND_wl_proxy_get_version, align 8
  %10 = load ptr, ptr %3, align 8
  %11 = call i32 %9(ptr noundef %10)
  %12 = load ptr, ptr %4, align 8
  %13 = call ptr (ptr, i32, ptr, i32, i32, ...) %6(ptr noundef %7, i32 noundef 1, ptr noundef %8, i32 noundef %11, i32 noundef 0, ptr noundef null, ptr noundef %12)
  store ptr %13, ptr %5, align 8
  %14 = load ptr, ptr %5, align 8
  call void @llvm.lifetime.end.p0(i64 8, ptr %5) #10
  ret ptr %14
}

; Function Attrs: nounwind uwtable
define internal void @Wayland_SeatCreateDataDevice(ptr noundef %0) #0 {
  %2 = alloca ptr, align 8
  %3 = alloca ptr, align 8
  %4 = alloca i32, align 4
  store ptr %0, ptr %2, align 8
  %5 = load ptr, ptr %2, align 8
  %6 = getelementptr inbounds nuw %struct.SDL_WaylandSeat, ptr %5, i32 0, i32 0
  %7 = load ptr, ptr %6, align 8
  %8 = getelementptr inbounds nuw %struct.SDL_VideoData, ptr %7, i32 0, i32 12
  %9 = load ptr, ptr %8, align 8
  %10 = icmp ne ptr %9, null
  br i1 %10, label %12, label %11

11:                                               ; preds = %1
  br label %55

12:                                               ; preds = %1
  call void @llvm.lifetime.start.p0(i64 8, ptr %3) #10
  %13 = call noalias ptr @SDL_calloc_REAL(i64 noundef 1, i64 noundef 88) #12
  store ptr %13, ptr %3, align 8
  %14 = load ptr, ptr %3, align 8
  %15 = icmp ne ptr %14, null
  br i1 %15, label %17, label %16

16:                                               ; preds = %12
  store i32 1, ptr %4, align 4
  br label %53

17:                                               ; preds = %12
  %18 = load ptr, ptr %2, align 8
  %19 = getelementptr inbounds nuw %struct.SDL_WaylandSeat, ptr %18, i32 0, i32 0
  %20 = load ptr, ptr %19, align 8
  %21 = getelementptr inbounds nuw %struct.SDL_VideoData, ptr %20, i32 0, i32 12
  %22 = load ptr, ptr %21, align 8
  %23 = load ptr, ptr %2, align 8
  %24 = getelementptr inbounds nuw %struct.SDL_WaylandSeat, ptr %23, i32 0, i32 1
  %25 = load ptr, ptr %24, align 8
  %26 = call ptr @wl_data_device_manager_get_data_device(ptr noundef %22, ptr noundef %25)
  %27 = load ptr, ptr %3, align 8
  %28 = getelementptr inbounds nuw %struct.SDL_WaylandDataDevice, ptr %27, i32 0, i32 0
  store ptr %26, ptr %28, align 8
  %29 = load ptr, ptr %2, align 8
  %30 = load ptr, ptr %3, align 8
  %31 = getelementptr inbounds nuw %struct.SDL_WaylandDataDevice, ptr %30, i32 0, i32 1
  store ptr %29, ptr %31, align 8
  %32 = load ptr, ptr %3, align 8
  %33 = getelementptr inbounds nuw %struct.SDL_WaylandDataDevice, ptr %32, i32 0, i32 0
  %34 = load ptr, ptr %33, align 8
  %35 = icmp ne ptr %34, null
  br i1 %35, label %38, label %36

36:                                               ; preds = %17
  %37 = load ptr, ptr %3, align 8
  call void @SDL_free_REAL(ptr noundef %37)
  br label %52

38:                                               ; preds = %17
  %39 = load ptr, ptr %3, align 8
  call void @Wayland_DataDeviceSetID(ptr noundef %39)
  %40 = load ptr, ptr %3, align 8
  %41 = getelementptr inbounds nuw %struct.SDL_WaylandDataDevice, ptr %40, i32 0, i32 0
  %42 = load ptr, ptr %41, align 8
  %43 = load ptr, ptr %3, align 8
  call void @wl_data_device_set_user_data(ptr noundef %42, ptr noundef %43)
  %44 = load ptr, ptr %3, align 8
  %45 = getelementptr inbounds nuw %struct.SDL_WaylandDataDevice, ptr %44, i32 0, i32 0
  %46 = load ptr, ptr %45, align 8
  %47 = load ptr, ptr %3, align 8
  %48 = call i32 @wl_data_device_add_listener(ptr noundef %46, ptr noundef @data_device_listener, ptr noundef %47)
  %49 = load ptr, ptr %3, align 8
  %50 = load ptr, ptr %2, align 8
  %51 = getelementptr inbounds nuw %struct.SDL_WaylandSeat, ptr %50, i32 0, i32 2
  store ptr %49, ptr %51, align 8
  br label %52

52:                                               ; preds = %38, %36
  store i32 0, ptr %4, align 4
  br label %53

53:                                               ; preds = %52, %16
  call void @llvm.lifetime.end.p0(i64 8, ptr %3) #10
  %54 = load i32, ptr %4, align 4
  switch i32 %54, label %56 [
    i32 0, label %55
    i32 1, label %55
  ]

55:                                               ; preds = %11, %53, %53
  ret void

56:                                               ; preds = %53
  unreachable
}