; Function Attrs: nounwind uwtable
define internal fastcc void @Wayland_SeatCreateDataDevice(ptr noundef %0) unnamed_addr #0 {
  %2 = alloca [24 x i8], align 16
  %3 = load ptr, ptr %0, align 8
  %4 = getelementptr inbounds nuw i8, ptr %3, i64 96
  %5 = load ptr, ptr %4, align 8
  %.not = icmp eq ptr %5, null
  br i1 %.not, label %46, label %6

6:                                                ; preds = %1
  %7 = tail call noalias dereferenceable_or_null(88) ptr @SDL_calloc_REAL(i64 noundef 1, i64 noundef 88) #14
  %.not16 = icmp eq ptr %7, null
  br i1 %.not16, label %46, label %8

8:                                                ; preds = %6
  %9 = load ptr, ptr %0, align 8
  %10 = getelementptr inbounds nuw i8, ptr %9, i64 96
  %11 = load ptr, ptr %10, align 8
  %12 = getelementptr inbounds nuw i8, ptr %0, i64 8
  %13 = load ptr, ptr %12, align 8
  %14 = load ptr, ptr @WAYLAND_wl_proxy_marshal_flags, align 8
  %15 = load ptr, ptr @WAYLAND_wl_data_device_interface, align 8
  %16 = load ptr, ptr @WAYLAND_wl_proxy_get_version, align 8
  %17 = tail call i32 %16(ptr noundef %11) #12
  %18 = tail call ptr (ptr, i32, ptr, i32, i32, ...) %14(ptr noundef %11, i32 noundef 1, ptr noundef %15, i32 noundef %17, i32 noundef 0, ptr noundef null, ptr noundef %13) #12
  store ptr %18, ptr %7, align 8
  %19 = getelementptr inbounds nuw i8, ptr %7, i64 8
  store ptr %0, ptr %19, align 8
  %.not17 = icmp eq ptr %18, null
  br i1 %.not17, label %20, label %21

20:                                               ; preds = %8
  tail call void @SDL_free_REAL(ptr noundef nonnull %7) #12
  br label %46

21:                                               ; preds = %8
  %22 = getelementptr inbounds nuw i8, ptr %7, i64 16
  %23 = load ptr, ptr %22, align 8
  %.not.i = icmp eq ptr %23, null
  br i1 %.not.i, label %24, label %Wayland_DataDeviceSetID.exit

24:                                               ; preds = %21
  %25 = tail call ptr @SDL_DBus_GetContext() #12
  %.not10.i = icmp eq ptr %25, null
  br i1 %.not10.i, label %thread-pre-split.i, label %26

26:                                               ; preds = %24
  %27 = getelementptr inbounds nuw i8, ptr %25, i64 48
  %28 = load ptr, ptr %27, align 8
  %29 = load ptr, ptr %25, align 8
  %30 = tail call ptr %28(ptr noundef %29) #12
  %.not11.i = icmp eq ptr %30, null
  br i1 %.not11.i, label %thread-pre-split.i, label %31

31:                                               ; preds = %26
  %32 = tail call noalias ptr @SDL_strdup_REAL(ptr noundef nonnull %30) #12
  store ptr %32, ptr %22, align 8
  br label %33

thread-pre-split.i:                               ; preds = %26, %24
  %.pr.i = load ptr, ptr %22, align 8
  br label %33

33:                                               ; preds = %thread-pre-split.i, %31
  %34 = phi ptr [ %.pr.i, %thread-pre-split.i ], [ %32, %31 ]
  %.not12.i = icmp eq ptr %34, null
  br i1 %.not12.i, label %35, label %Wayland_DataDeviceSetID.exit

35:                                               ; preds = %33
  call void @llvm.lifetime.start.p0(i64 24, ptr nonnull %2) #12
  %36 = tail call i32 @getpid() #12
  %37 = sext i32 %36 to i64
  %38 = call i32 (ptr, i64, ptr, ...) @SDL_snprintf_REAL(ptr noundef nonnull %2, i64 noundef 24, ptr noundef nonnull @.str.6, i64 noundef %37) #12
  %39 = call noalias ptr @SDL_strdup_REAL(ptr noundef nonnull %2) #12
  store ptr %39, ptr %22, align 8
  call void @llvm.lifetime.end.p0(i64 24, ptr nonnull %2) #12
  br label %Wayland_DataDeviceSetID.exit

Wayland_DataDeviceSetID.exit:                     ; preds = %21, %33, %35
  %40 = load ptr, ptr %7, align 8
  %41 = load ptr, ptr @WAYLAND_wl_proxy_set_user_data, align 8
  call void %41(ptr noundef %40, ptr noundef nonnull %7) #12
  %42 = load ptr, ptr %7, align 8
  %43 = load ptr, ptr @WAYLAND_wl_proxy_add_listener, align 8
  %44 = call i32 %43(ptr noundef %42, ptr noundef nonnull @data_device_listener, ptr noundef nonnull %7) #12
  %45 = getelementptr inbounds nuw i8, ptr %0, i64 16
  store ptr %7, ptr %45, align 8
  br label %46

46:                                               ; preds = %6, %Wayland_DataDeviceSetID.exit, %20, %1
  ret void
}